ccopy_reg
_reconstructor
p0
(cdata
Dictionary
p1
c__builtin__
object
p2
Ntp3
Rp4
(dp5
S'pad_token'
p6
S'<pad>'
p7
sS'idx2word'
p8
(lp9
g7
aS'the'
p10
aS'person'
p11
aS'he'
p12
aS'<s>'
p13
aS'</s>'
p14
aS'<left_config>'
p15
aS'a'
p16
aS'<right_dir>'
p17
aS'was'
p18
aS'<bi_dir>'
p19
aS'<sequence>'
p20
aS'and'
p21
aS'<left_dir>'
p22
aS'it'
p23
aS'his'
p24
aS'up'
p25
aS'another'
p26
aS'<background>'
p27
aS'to'
p28
aS'picked'
p29
aS'on'
p30
aS'came'
p31
aS'in'
p32
aS'room'
p33
aS'table'
p34
aS'<elaboration>'
p35
aS'some'
p36
aS'they'
p37
aS'then'
p38
aS'of'
p39
aS'back'
p40
aS'tennis'
p41
aS'put'
p42
aS'out'
p43
aS'throwing'
p44
aS'that'
p45
aS'with'
p46
aS'<vc>'
p47
aS'him'
p48
aS'at'
p49
aS'threw'
p50
aS'<justify>'
p51
aS'ball'
p52
aS'water'
p53
aS'took'
p54
aS'phone'
p55
aS'looking'
p56
aS'rugby'
p57
aS'catch'
p58
aS'<purpose>'
p59
aS'<enablement>'
p60
aS'went'
p61
aS'drank'
p62
aS'left'
p63
aS'together'
p64
aS'<nvr>'
p65
aS'failed'
p66
aS'into'
p67
aS'frisbee'
p68
aS'them'
p69
aS'<right_config>'
p70
aS'two'
p71
aS'ran'
p72
aS'computer'
p73
aS'began'
p74
aS'walked'
p75
aS'opened'
p76
aS'reading'
p77
aS'<motivation>'
p78
aS'<contrast>'
p79
aS'one'
p80
aS'caught'
p81
aS'were'
p82
aS'persons'
p83
aS'started'
p84
aS'bag'
p85
aS'seat'
p86
aS'coffee'
p87
aS'for'
p88
aS'toward'
p89
aS'book'
p90
aS'sitting'
p91
aS'stood'
p92
aS'playing'
p93
aS'working'
p94
aS'first'
p95
aS'from'
p96
aS'bottle'
p97
aS'eating'
p98
aS'drinking'
p99
aS'continued'
p100
aS'suddenly'
p101
aS'walking'
p102
aS'talking'
p103
aS'pizza'
p104
aS'paper'
p105
aS'found'
p106
aS'juice'
p107
aS'blackboard'
p108
aS'<vr>'
p109
aS'<evaluation>'
p110
aS'laptop'
p111
aS'writing'
p112
aS'stopped'
p113
aS'bed'
p114
aS'sat'
p115
aS'towards'
p116
aS'looked'
p117
aS'watching'
p118
aS'wrote'
p119
aS'drink'
p120
aS'had'
p121
aS'other'
p122
aS'glass'
p123
aS'clothes'
p124
aS'next'
p125
aS'door'
p126
aS'sandwich'
p127
aS'ate'
p128
aS'fruits'
p129
aS'cleaned'
p130
aS'mug'
p131
aS'closed'
p132
aS'exercising'
p133
aS'gave'
p134
aS'pen'
p135
aS'but'
p136
aS'talked'
p137
aS'tea'
p138
aS'high'
p139
aS'get'
p140
aS'tried'
p141
aS'greeted'
p142
aS'hand'
p143
aS'around'
p144
aS'hair'
p145
aS'about'
p146
aS'called'
p147
aS'again'
p148
aS'papers'
p149
aS'plate'
p150
aS'having'
p151
aS'help'
p152
aS'lunch'
p153
aS'doing'
p154
aS'off'
p155
aS'studying'
p156
aS'woke'
p157
aS'<interpretation>'
p158
aS'while'
p159
aS'game'
p160
aS'discussed'
p161
aS'headphone'
p162
aS'problems'
p163
aS'chair'
p164
aS'milk'
p165
aS'round'
p166
aS'paddle'
p167
aS'refilled'
p168
aS'call'
p169
aS'envelope'
p170
aS'snacks'
p171
aS'pong'
p172
aS'ping'
p173
aS'talk'
p174
aS'got'
p175
aS'paddles'
p176
aS'letter'
p177
aS'pocket'
p178
aS'yawned'
p179
aS'away'
p180
aS'news'
p181
aS'asked'
p182
aS'stacked'
p183
aS'sleeping'
p184
aS'plates'
p185
aS'document'
p186
aS'cleaning'
p187
aS'drawing'
p188
aS'fridge'
p189
aS'dryer'
p190
aS'microwave'
p191
aS'fell'
p192
aS'down'
p193
aS'himself'
p194
aS'videos'
p195
aS'an'
p196
aS'felt'
p197
aS'all'
p198
aS'under'
p199
aS'garden'
p200
aS'answered'
p201
aS'lunchbox'
p202
aS'classroom'
p203
aS'green'
p204
aS'erasing'
p205
aS'over'
p206
aS'hands'
p207
aS'washed'
p208
aS'typing'
p209
aS'tree'
p210
aS'aside'
p211
aS'entered'
p212
aS'seats'
p213
aS'listening'
p214
aS'using'
p215
aS'towel'
p216
aS'printer'
p217
aS'there'
p218
aS'music'
p219
aS'chatting'
p220
aS'trash'
p221
aS'picture'
p222
aS'scratch'
p223
aS'doubts'
p224
aS'go'
p225
aS'sighed'
p226
aS'notes'
p227
aS'dodged'
p228
aS'second'
p229
aS'what'
p230
aS'giving'
p231
aS'waiting'
p232
aS'filled'
p233
aS'box'
p234
aS'stretching'
p235
aS'browsing'
p236
aS'pillow'
p237
aS'brought'
p238
aS'angry'
p239
aS'arms'
p240
aS'dialed'
p241
aS'wallet'
p242
aS'can'
p243
aS'spilled'
p244
aS'something'
p245
aS'dropped'
p246
aS'machine'
p247
aS'notebook'
p248
aS'lay'
p249
aS'patted'
p250
aS'light'
p251
aS'cold'
p252
aS'window'
p253
aS'discuss'
p254
aS'upward'
p255
aS'idea'
p256
aS'accidentally'
p257
aS'used'
p258
aS'fountain'
p259
aS'<circumstance>'
p260
aS'math'
p261
aS'shut'
p262
aS'turned'
p263
aS'resumed'
p264
aS'programming'
p265
aS'onto'
p266
aS'rang'
p267
aS'number'
p268
aS'friend'
p269
aS'happily'
p270
aS'refilling'
p271
aS'saw'
p272
aS'shocked'
p273
aS'pair'
p274
aS'face'
p275
aS'ground'
p276
aS'rice'
p277
aS'watch'
p278
aS'fainted'
p279
aS'discussing'
p280
aS'ignored'
p281
aS'blew'
p282
aS'arm'
p283
aS'jumped'
p284
aS'taking'
p285
aS'passing'
p286
aS'refill'
p287
aS'juggled'
p288
aS'novel'
p289
aS'look'
p290
aS'newspaper'
p291
aS'sanitizer'
p292
aS'bags'
p293
aS'things'
p294
aS'cup'
p295
aS'homework'
p296
aS'whispers'
p297
aS'five'
p298
aS'desk'
p299
aS'shoulder'
p300
aS'laughing'
p301
aS'hung'
p302
aS'dollars'
p303
aS'dinner'
p304
aS'mixed'
p305
aS'glasses'
p306
aS'raised'
p307
aS'fork'
p308
aS'head'
p309
aS'poster'
p310
aS'line'
p311
aS'signed'
p312
aS'piece'
p313
aS'yoga'
p314
aS'rubbed'
p315
aS'handed'
p316
aS'plugged'
p317
aS'building'
p318
aS'desserts'
p319
aS'carpet'
p320
aS'squeezing'
p321
aS'dessert'
p322
aS'putting'
p323
aS'video'
p324
aS'drinks'
p325
aS'soup'
p326
aS'new'
p327
aS'drew'
p328
aS'packing'
p329
aS'fetch'
p330
aS'shook'
p331
aS'followed'
p332
aS'apple'
p333
aS'countinued'
p334
aS'scratched'
p335
aS'this'
p336
aS'cap'
p337
aS'earphone'
p338
aS'pieces'
p339
aS'drawer'
p340
aS'how'
p341
aS'adjacent'
p342
aS'tidying'
p343
aS'goodbye'
p344
aS'pulled'
p345
aS'yawning'
p346
aS'interesting'
p347
aS'outside'
p348
aS'food'
p349
aS'washing'
p350
aS'each'
p351
aS'laid'
p352
aS'thing'
p353
aS'shelves'
p354
aS'their'
p355
aS'station'
p356
aS'banana'
p357
aS'showed'
p358
aS'curtains'
p359
aS'have'
p360
aS'dishes'
p361
aS'dancing'
p362
aS'which'
p363
aS'laughed'
p364
aS'mouth'
p365
aS'printed'
p366
aS'alarm'
p367
aS'napkin'
p368
aS'muted'
p369
aS'clean'
p370
aS'written'
p371
aS'pointed'
p372
aS'do'
p373
aS'listened'
p374
aS'express'
p375
aS'words'
p376
aS'shared'
p377
aS'catched'
p378
aS'packed'
p379
aS'said'
p380
aS'ways'
p381
aS'screen'
p382
aS'toothbrush'
p383
aS'wear'
p384
aS'picking'
p385
aS'restroom'
p386
aS'danced'
p387
aS'headed'
p388
aS'wall'
p389
aS'sky'
p390
aS'offered'
p391
aS'erased'
p392
aS'toothpaste'
p393
aS'chatted'
p394
aS'finished'
p395
aS'preson'
p396
aS'studied'
p397
aS'different'
p398
aS'bottles'
p399
aS'bowl'
p400
aS'kept'
p401
aS'adding'
p402
aS'thinking'
p403
aS'bell'
p404
aS'hat'
p405
aS'remaining'
p406
aS'bin'
p407
aS'read'
p408
aS'sorting'
p409
aS'sofa'
p410
aS'choosing'
p411
aS'elaboraton'
p412
aS'football'
p413
aS'wiped'
p414
aS'own'
p415
aS'poured'
p416
aS'coke'
p417
aS'eat'
p418
aS'problem'
p419
aS'nap'
p420
aS"what's"
p421
aS'brushing'
p422
aS'rested'
p423
aS'meals'
p424
aS'teeth'
p425
asS'word2idx'
p426
(dp427
g198
I189
sg223
I214
sg288
I279
sg319
I310
sg225
I216
sg164
I155
sg165
I156
sg320
I311
sg158
I149
sg201
I192
sg321
I312
sg199
I190
sg200
I191
sg91
I82
sg322
I313
sg323
I314
sg99
I90
sg100
I91
sg226
I217
sg227
I218
sg228
I219
sg166
I157
sg124
I115
sg137
I128
sg78
I69
sg138
I129
sg15
I6
sg229
I220
sg324
I315
sg29
I20
sg325
I316
sg230
I221
sg92
I83
sg242
I233
sg231
I222
sg167
I158
sg232
I223
sg327
I318
sg233
I224
sg168
I159
sg328
I319
sg53
I44
sg329
I320
sg234
I225
sg235
I226
sg330
I321
sg236
I227
sg331
I322
sg237
I228
sg332
I323
sg333
I324
sg101
I92
sg238
I229
sg334
I325
sg96
I87
sg94
I85
sg28
I19
sg13
I4
sg239
I230
sg71
I62
sg125
I116
sg169
I160
sg335
I326
sg126
I117
sg84
I75
sg170
I161
sg23
I14
sg55
I46
sg240
I231
sg110
I101
sg33
I24
sg241
I232
sg336
I327
sg337
I328
sg59
I50
sg326
I317
sg243
I234
sg303
I294
sg245
I236
sg338
I329
sg171
I162
sg339
I330
sg139
I130
sg340
I331
sg7
I0
sg246
I237
sg172
I163
sg140
I131
sg173
I164
sg202
I193
sg247
I238
sg341
I332
sg342
I333
sg104
I95
sg127
I118
sg141
I132
sg248
I239
sg249
I240
sg343
I334
sg203
I194
sg250
I241
sg251
I242
sg204
I195
sg344
I335
sg345
I336
sg93
I84
sg174
I165
sg205
I196
sg152
I143
sg206
I197
sg105
I96
sg252
I243
sg346
I337
sg347
I338
sg112
I103
sg253
I244
sg38
I29
sg69
I60
sg349
I340
sg153
I144
sg27
I18
sg37
I28
sg207
I198
sg350
I341
sg254
I245
sg113
I104
sg351
I342
sg106
I97
sg61
I52
sg255
I246
sg79
I70
sg60
I51
sg154
I145
sg256
I247
sg257
I248
sg52
I43
sg43
I34
sg76
I67
sg75
I66
sg208
I199
sg56
I47
sg352
I343
sg259
I250
sg175
I166
sg260
I251
sg261
I252
sg262
I253
sg371
I362
sg42
I33
sg142
I133
sg264
I255
sg128
I119
sg22
I13
sg265
I256
sg353
I344
sg266
I257
sg95
I86
sg267
I258
sg41
I32
sg268
I259
sg80
I71
sg26
I17
sg81
I72
sg354
I345
sg355
I346
sg356
I347
sg209
I200
sg357
I348
sg269
I260
sg16
I7
sg45
I36
sg270
I261
sg54
I45
sg401
I392
sg421
I412
sg271
I262
sg358
I349
sg210
I201
sg114
I105
sg129
I120
sg89
I80
sg21
I12
sg359
I350
sg72
I63
sg263
I254
sg107
I98
sg360
I351
sg130
I121
sg272
I263
sg115
I106
sg361
I352
sg362
I353
sg156
I147
sg211
I202
sg273
I264
sg363
I354
sg364
I355
sg116
I107
sg108
I99
sg365
I356
sg366
I357
sg177
I168
sg274
I265
sg367
I358
sg368
I359
sg275
I266
sg117
I108
sg381
I372
sg65
I56
sg370
I361
sg31
I22
sg102
I93
sg47
I38
sg276
I267
sg35
I26
sg348
I339
sg66
I57
sg277
I268
sg372
I363
sg150
I141
sg24
I15
sg374
I365
sg118
I109
sg375
I366
sg278
I269
sg178
I169
sg376
I367
sg377
I368
sg48
I39
sg20
I11
sg279
I270
sg85
I76
sg378
I369
sg280
I271
sg119
I110
sg281
I272
sg282
I273
sg44
I35
sg179
I170
sg86
I77
sg70
I61
sg73
I64
sg283
I274
sg379
I370
sg380
I371
sg369
I360
sg284
I275
sg180
I171
sg131
I122
sg132
I123
sg77
I68
sg373
I364
sg382
I373
sg82
I73
sg383
I374
sg384
I375
sg181
I172
sg385
I376
sg57
I48
sg285
I276
sg386
I377
sg286
I277
sg182
I173
sg387
I378
sg388
I379
sg389
I380
sg390
I381
sg34
I25
sg287
I278
sg392
I383
sg393
I384
sg62
I53
sg212
I203
sg157
I148
sg50
I41
sg17
I8
sg176
I167
sg391
I382
sg395
I386
sg224
I215
sg58
I49
sg289
I280
sg183
I174
sg290
I281
sg103
I94
sg396
I387
sg159
I150
sg291
I282
sg397
I388
sg292
I283
sg87
I78
sg184
I175
sg32
I23
sg293
I284
sg398
I389
sg399
I390
sg294
I285
sg74
I65
sg400
I391
sg185
I176
sg186
I177
sg258
I249
sg120
I111
sg143
I134
sg83
I74
sg187
I178
sg155
I146
sg11
I2
sg97
I88
sg10
I1
sg188
I179
sg63
I54
sg111
I102
sg213
I204
sg14
I5
sg402
I393
sg109
I100
sg295
I286
sg403
I394
sg404
I395
sg121
I112
sg133
I124
sg90
I81
sg405
I396
sg406
I397
sg296
I287
sg134
I125
sg407
I398
sg144
I135
sg408
I399
sg189
I180
sg297
I288
sg160
I151
sg190
I181
sg298
I289
sg214
I205
sg299
I290
sg215
I206
sg300
I291
sg409
I400
sg216
I207
sg410
I401
sg301
I292
sg302
I293
sg36
I27
sg40
I31
sg145
I136
sg217
I208
sg411
I402
sg412
I403
sg19
I10
sg88
I79
sg191
I182
sg135
I126
sg413
I404
sg98
I89
sg30
I21
sg146
I137
sg39
I30
sg244
I235
sg161
I152
sg304
I295
sg423
I414
sg305
I296
sg306
I297
sg414
I405
sg307
I298
sg415
I406
sg67
I58
sg162
I153
sg193
I184
sg218
I209
sg416
I407
sg219
I210
sg18
I9
sg308
I299
sg309
I300
sg194
I185
sg220
I211
sg310
I301
sg417
I408
sg136
I127
sg311
I302
sg46
I37
sg418
I409
sg12
I3
sg25
I16
sg312
I303
sg419
I410
sg313
I304
sg147
I138
sg195
I186
sg196
I187
sg49
I40
sg148
I139
sg314
I305
sg315
I306
sg316
I307
sg317
I308
sg420
I411
sg122
I113
sg149
I140
sg221
I212
sg394
I385
sg422
I413
sg222
I213
sg68
I59
sg197
I188
sg163
I154
sg192
I183
sg424
I415
sg318
I309
sg123
I114
sg51
I42
sg64
I55
sg425
I416
sg151
I142
ssb.